; Function Attrs: mustprogress uwtable
define void @_ZN5ImGui16PushPasswordFontEv() local_unnamed_addr #6 {
  %1 = load ptr, ptr @GImGui, align 8, !tbaa !3
  %2 = getelementptr inbounds nuw i8, ptr %1, i64 4264
  %3 = load ptr, ptr %2, align 8, !tbaa !277
  %4 = getelementptr inbounds nuw i8, ptr %1, i64 9184
  %5 = tail call noundef ptr @_ZN6ImFont9FindGlyphEt(ptr noundef nonnull align 8 dereferenceable(114) %3, i16 noundef zeroext 42)
  %6 = getelementptr inbounds nuw i8, ptr %3, i64 20
  %7 = load float, ptr %6, align 4, !tbaa !415
  %8 = getelementptr inbounds nuw i8, ptr %1, i64 9204
  store float %7, ptr %8, align 4, !tbaa !415
  %9 = getelementptr inbounds nuw i8, ptr %3, i64 96
  %10 = load float, ptr %9, align 8, !tbaa !416
  %11 = getelementptr inbounds nuw i8, ptr %1, i64 9280
  store float %10, ptr %11, align 8, !tbaa !416
  %12 = getelementptr inbounds nuw i8, ptr %3, i64 100
  %13 = load float, ptr %12, align 4, !tbaa !417
  %14 = getelementptr inbounds nuw i8, ptr %1, i64 9284
  store float %13, ptr %14, align 4, !tbaa !417
  %15 = getelementptr inbounds nuw i8, ptr %3, i64 104
  %16 = load float, ptr %15, align 8, !tbaa !278
  %17 = getelementptr inbounds nuw i8, ptr %1, i64 9288
  store float %16, ptr %17, align 8, !tbaa !278
  %18 = getelementptr inbounds nuw i8, ptr %3, i64 64
  %19 = load ptr, ptr %18, align 8, !tbaa !418
  %20 = getelementptr inbounds nuw i8, ptr %1, i64 9248
  store ptr %19, ptr %20, align 8, !tbaa !418
  %21 = getelementptr inbounds nuw i8, ptr %1, i64 9240
  store ptr %5, ptr %21, align 8, !tbaa !419
  %22 = getelementptr inbounds nuw i8, ptr %5, i64 4
  %23 = load float, ptr %22, align 4, !tbaa !420
  %24 = getelementptr inbounds nuw i8, ptr %1, i64 9200
  store float %23, ptr %24, align 8, !tbaa !422
  tail call void @_ZN5ImGui8PushFontEP6ImFont(ptr noundef nonnull %4)
  ret void
}